target datalayout = "e-m:e-p270:32:32-p271:32:32-p272:64:64-i64:64-i128:128-f80:128-n8:16:32:64-S128"
target triple = "x86_64-pc-linux-gnu"

%struct.LodePNGColorMode = type { i32, i32, ptr, i64, i32, i32, i32, i32 }
%struct.LodePNGInfo = type { i32, i32, i32, %struct.LodePNGColorMode, i32, i32, i32, i32, i64, ptr, ptr, i64, ptr, ptr, ptr, ptr, i32, ptr, i32, i32, %struct.LodePNGTime, i32, i32, i32, i32, i32, i32, i32, i32, i32, i32, i32, i32, i32, i32, i32, i32, i32, i32, ptr, ptr, i32, i32, i32, i32, i32, i32, i32, i32, i32, i32, i32, i32, i32, i32, i32, i32, i32, i32, i32, i32, i32, i32, i32, i32, i32, [3 x ptr], [3 x i64] }
%struct.LodePNGTime = type { i32, i32, i32, i32, i32, i32 }

@.str.17 = private unnamed_addr constant [5 x i8] c"mDCv\00", align 1

; Function Attrs: mustprogress nounwind uwtable
define internal void @_ZL19lodepng_set32bitIntPhj(ptr noundef %0, i32 noundef %1) #3 {
  %3 = alloca ptr, align 8
  %4 = alloca i32, align 4
  store ptr %0, ptr %3, align 8, !tbaa !11
  store i32 %1, ptr %4, align 4, !tbaa !15
  %5 = load i32, ptr %4, align 4, !tbaa !15
  %6 = lshr i32 %5, 24
  %7 = and i32 %6, 255
  %8 = trunc i32 %7 to i8
  %9 = load ptr, ptr %3, align 8, !tbaa !11
  %10 = getelementptr inbounds i8, ptr %9, i64 0
  store i8 %8, ptr %10, align 1, !tbaa !45
  %11 = load i32, ptr %4, align 4, !tbaa !15
  %12 = lshr i32 %11, 16
  %13 = and i32 %12, 255
  %14 = trunc i32 %13 to i8
  %15 = load ptr, ptr %3, align 8, !tbaa !11
  %16 = getelementptr inbounds i8, ptr %15, i64 1
  store i8 %14, ptr %16, align 1, !tbaa !45
  %17 = load i32, ptr %4, align 4, !tbaa !15
  %18 = lshr i32 %17, 8
  %19 = and i32 %18, 255
  %20 = trunc i32 %19 to i8
  %21 = load ptr, ptr %3, align 8, !tbaa !11
  %22 = getelementptr inbounds i8, ptr %21, i64 2
  store i8 %20, ptr %22, align 1, !tbaa !45
  %23 = load i32, ptr %4, align 4, !tbaa !15
  %24 = and i32 %23, 255
  %25 = trunc i32 %24 to i8
  %26 = load ptr, ptr %3, align 8, !tbaa !11
  %27 = getelementptr inbounds i8, ptr %26, i64 3
  store i8 %25, ptr %27, align 1, !tbaa !45
  ret void
}

; Function Attrs: mustprogress uwtable
define internal noundef i32 @_ZL13addChunk_mDCvP8ucvectorPK11LodePNGInfo(ptr noundef %0, ptr noundef %1) #0 {
  %3 = alloca i32, align 4
  %4 = alloca ptr, align 8
  %5 = alloca ptr, align 8
  %6 = alloca ptr, align 8
  %7 = alloca i32, align 4
  %8 = alloca i32, align 4
  store ptr %0, ptr %4, align 8, !tbaa !65
  store ptr %1, ptr %5, align 8, !tbaa !116
  call void @llvm.lifetime.start.p0(i64 8, ptr %6) #17
  %9 = load ptr, ptr %5, align 8, !tbaa !116
  %10 = getelementptr inbounds nuw %struct.LodePNGInfo, ptr %9, i32 0, i32 48
  %11 = load i32, ptr %10, align 4, !tbaa !155
  %12 = icmp ugt i32 %11, 65535
  br i1 %12, label %13, label %14

13:                                               ; preds = %2
  store i32 118, ptr %3, align 4
  store i32 1, ptr %7, align 4
  br label %184

14:                                               ; preds = %2
  %15 = load ptr, ptr %5, align 8, !tbaa !116
  %16 = getelementptr inbounds nuw %struct.LodePNGInfo, ptr %15, i32 0, i32 49
  %17 = load i32, ptr %16, align 8, !tbaa !156
  %18 = icmp ugt i32 %17, 65535
  br i1 %18, label %19, label %20

19:                                               ; preds = %14
  store i32 118, ptr %3, align 4
  store i32 1, ptr %7, align 4
  br label %184

20:                                               ; preds = %14
  %21 = load ptr, ptr %5, align 8, !tbaa !116
  %22 = getelementptr inbounds nuw %struct.LodePNGInfo, ptr %21, i32 0, i32 50
  %23 = load i32, ptr %22, align 4, !tbaa !157
  %24 = icmp ugt i32 %23, 65535
  br i1 %24, label %25, label %26

25:                                               ; preds = %20
  store i32 118, ptr %3, align 4
  store i32 1, ptr %7, align 4
  br label %184

26:                                               ; preds = %20
  %27 = load ptr, ptr %5, align 8, !tbaa !116
  %28 = getelementptr inbounds nuw %struct.LodePNGInfo, ptr %27, i32 0, i32 51
  %29 = load i32, ptr %28, align 8, !tbaa !158
  %30 = icmp ugt i32 %29, 65535
  br i1 %30, label %31, label %32

31:                                               ; preds = %26
  store i32 118, ptr %3, align 4
  store i32 1, ptr %7, align 4
  br label %184

32:                                               ; preds = %26
  %33 = load ptr, ptr %5, align 8, !tbaa !116
  %34 = getelementptr inbounds nuw %struct.LodePNGInfo, ptr %33, i32 0, i32 52
  %35 = load i32, ptr %34, align 4, !tbaa !159
  %36 = icmp ugt i32 %35, 65535
  br i1 %36, label %37, label %38

37:                                               ; preds = %32
  store i32 118, ptr %3, align 4
  store i32 1, ptr %7, align 4
  br label %184

38:                                               ; preds = %32
  %39 = load ptr, ptr %5, align 8, !tbaa !116
  %40 = getelementptr inbounds nuw %struct.LodePNGInfo, ptr %39, i32 0, i32 53
  %41 = load i32, ptr %40, align 8, !tbaa !160
  %42 = icmp ugt i32 %41, 65535
  br i1 %42, label %43, label %44

43:                                               ; preds = %38
  store i32 118, ptr %3, align 4
  store i32 1, ptr %7, align 4
  br label %184

44:                                               ; preds = %38
  %45 = load ptr, ptr %5, align 8, !tbaa !116
  %46 = getelementptr inbounds nuw %struct.LodePNGInfo, ptr %45, i32 0, i32 54
  %47 = load i32, ptr %46, align 4, !tbaa !161
  %48 = icmp ugt i32 %47, 65535
  br i1 %48, label %49, label %50

49:                                               ; preds = %44
  store i32 118, ptr %3, align 4
  store i32 1, ptr %7, align 4
  br label %184

50:                                               ; preds = %44
  %51 = load ptr, ptr %5, align 8, !tbaa !116
  %52 = getelementptr inbounds nuw %struct.LodePNGInfo, ptr %51, i32 0, i32 55
  %53 = load i32, ptr %52, align 8, !tbaa !162
  %54 = icmp ugt i32 %53, 65535
  br i1 %54, label %55, label %56

55:                                               ; preds = %50
  store i32 118, ptr %3, align 4
  store i32 1, ptr %7, align 4
  br label %184

56:                                               ; preds = %50
  call void @llvm.lifetime.start.p0(i64 4, ptr %8) #17
  %57 = load ptr, ptr %4, align 8, !tbaa !65
  %58 = call noundef i32 @_ZL18lodepng_chunk_initPPhP8ucvectormPKc(ptr noundef %6, ptr noundef %57, i64 noundef 24, ptr noundef @.str.17)
  store i32 %58, ptr %8, align 4, !tbaa !15
  %59 = load i32, ptr %8, align 4, !tbaa !15
  %60 = icmp ne i32 %59, 0
  br i1 %60, label %61, label %63

61:                                               ; preds = %56
  %62 = load i32, ptr %8, align 4, !tbaa !15
  store i32 %62, ptr %3, align 4
  store i32 1, ptr %7, align 4
  br label %64

63:                                               ; preds = %56
  store i32 0, ptr %7, align 4
  br label %64

64:                                               ; preds = %63, %61
  call void @llvm.lifetime.end.p0(i64 4, ptr %8) #17
  %65 = load i32, ptr %7, align 4
  switch i32 %65, label %184 [
    i32 0, label %66
  ]

66:                                               ; preds = %64
  %67 = load ptr, ptr %5, align 8, !tbaa !116
  %68 = getelementptr inbounds nuw %struct.LodePNGInfo, ptr %67, i32 0, i32 48
  %69 = load i32, ptr %68, align 4, !tbaa !155
  %70 = lshr i32 %69, 8
  %71 = trunc i32 %70 to i8
  %72 = load ptr, ptr %6, align 8, !tbaa !11
  %73 = getelementptr inbounds i8, ptr %72, i64 8
  store i8 %71, ptr %73, align 1, !tbaa !45
  %74 = load ptr, ptr %5, align 8, !tbaa !116
  %75 = getelementptr inbounds nuw %struct.LodePNGInfo, ptr %74, i32 0, i32 48
  %76 = load i32, ptr %75, align 4, !tbaa !155
  %77 = trunc i32 %76 to i8
  %78 = load ptr, ptr %6, align 8, !tbaa !11
  %79 = getelementptr inbounds i8, ptr %78, i64 9
  store i8 %77, ptr %79, align 1, !tbaa !45
  %80 = load ptr, ptr %5, align 8, !tbaa !116
  %81 = getelementptr inbounds nuw %struct.LodePNGInfo, ptr %80, i32 0, i32 49
  %82 = load i32, ptr %81, align 8, !tbaa !156
  %83 = lshr i32 %82, 8
  %84 = trunc i32 %83 to i8
  %85 = load ptr, ptr %6, align 8, !tbaa !11
  %86 = getelementptr inbounds i8, ptr %85, i64 10
  store i8 %84, ptr %86, align 1, !tbaa !45
  %87 = load ptr, ptr %5, align 8, !tbaa !116
  %88 = getelementptr inbounds nuw %struct.LodePNGInfo, ptr %87, i32 0, i32 49
  %89 = load i32, ptr %88, align 8, !tbaa !156
  %90 = trunc i32 %89 to i8
  %91 = load ptr, ptr %6, align 8, !tbaa !11
  %92 = getelementptr inbounds i8, ptr %91, i64 11
  store i8 %90, ptr %92, align 1, !tbaa !45
  %93 = load ptr, ptr %5, align 8, !tbaa !116
  %94 = getelementptr inbounds nuw %struct.LodePNGInfo, ptr %93, i32 0, i32 50
  %95 = load i32, ptr %94, align 4, !tbaa !157
  %96 = lshr i32 %95, 8
  %97 = trunc i32 %96 to i8
  %98 = load ptr, ptr %6, align 8, !tbaa !11
  %99 = getelementptr inbounds i8, ptr %98, i64 12
  store i8 %97, ptr %99, align 1, !tbaa !45
  %100 = load ptr, ptr %5, align 8, !tbaa !116
  %101 = getelementptr inbounds nuw %struct.LodePNGInfo, ptr %100, i32 0, i32 50
  %102 = load i32, ptr %101, align 4, !tbaa !157
  %103 = trunc i32 %102 to i8
  %104 = load ptr, ptr %6, align 8, !tbaa !11
  %105 = getelementptr inbounds i8, ptr %104, i64 13
  store i8 %103, ptr %105, align 1, !tbaa !45
  %106 = load ptr, ptr %5, align 8, !tbaa !116
  %107 = getelementptr inbounds nuw %struct.LodePNGInfo, ptr %106, i32 0, i32 51
  %108 = load i32, ptr %107, align 8, !tbaa !158
  %109 = lshr i32 %108, 8
  %110 = trunc i32 %109 to i8
  %111 = load ptr, ptr %6, align 8, !tbaa !11
  %112 = getelementptr inbounds i8, ptr %111, i64 14
  store i8 %110, ptr %112, align 1, !tbaa !45
  %113 = load ptr, ptr %5, align 8, !tbaa !116
  %114 = getelementptr inbounds nuw %struct.LodePNGInfo, ptr %113, i32 0, i32 51
  %115 = load i32, ptr %114, align 8, !tbaa !158
  %116 = trunc i32 %115 to i8
  %117 = load ptr, ptr %6, align 8, !tbaa !11
  %118 = getelementptr inbounds i8, ptr %117, i64 15
  store i8 %116, ptr %118, align 1, !tbaa !45
  %119 = load ptr, ptr %5, align 8, !tbaa !116
  %120 = getelementptr inbounds nuw %struct.LodePNGInfo, ptr %119, i32 0, i32 52
  %121 = load i32, ptr %120, align 4, !tbaa !159
  %122 = lshr i32 %121, 8
  %123 = trunc i32 %122 to i8
  %124 = load ptr, ptr %6, align 8, !tbaa !11
  %125 = getelementptr inbounds i8, ptr %124, i64 16
  store i8 %123, ptr %125, align 1, !tbaa !45
  %126 = load ptr, ptr %5, align 8, !tbaa !116
  %127 = getelementptr inbounds nuw %struct.LodePNGInfo, ptr %126, i32 0, i32 52
  %128 = load i32, ptr %127, align 4, !tbaa !159
  %129 = trunc i32 %128 to i8
  %130 = load ptr, ptr %6, align 8, !tbaa !11
  %131 = getelementptr inbounds i8, ptr %130, i64 17
  store i8 %129, ptr %131, align 1, !tbaa !45
  %132 = load ptr, ptr %5, align 8, !tbaa !116
  %133 = getelementptr inbounds nuw %struct.LodePNGInfo, ptr %132, i32 0, i32 53
  %134 = load i32, ptr %133, align 8, !tbaa !160
  %135 = lshr i32 %134, 8
  %136 = trunc i32 %135 to i8
  %137 = load ptr, ptr %6, align 8, !tbaa !11
  %138 = getelementptr inbounds i8, ptr %137, i64 18
  store i8 %136, ptr %138, align 1, !tbaa !45
  %139 = load ptr, ptr %5, align 8, !tbaa !116
  %140 = getelementptr inbounds nuw %struct.LodePNGInfo, ptr %139, i32 0, i32 53
  %141 = load i32, ptr %140, align 8, !tbaa !160
  %142 = trunc i32 %141 to i8
  %143 = load ptr, ptr %6, align 8, !tbaa !11
  %144 = getelementptr inbounds i8, ptr %143, i64 19
  store i8 %142, ptr %144, align 1, !tbaa !45
  %145 = load ptr, ptr %5, align 8, !tbaa !116
  %146 = getelementptr inbounds nuw %struct.LodePNGInfo, ptr %145, i32 0, i32 54
  %147 = load i32, ptr %146, align 4, !tbaa !161
  %148 = lshr i32 %147, 8
  %149 = trunc i32 %148 to i8
  %150 = load ptr, ptr %6, align 8, !tbaa !11
  %151 = getelementptr inbounds i8, ptr %150, i64 20
  store i8 %149, ptr %151, align 1, !tbaa !45
  %152 = load ptr, ptr %5, align 8, !tbaa !116
  %153 = getelementptr inbounds nuw %struct.LodePNGInfo, ptr %152, i32 0, i32 54
  %154 = load i32, ptr %153, align 4, !tbaa !161
  %155 = trunc i32 %154 to i8
  %156 = load ptr, ptr %6, align 8, !tbaa !11
  %157 = getelementptr inbounds i8, ptr %156, i64 21
  store i8 %155, ptr %157, align 1, !tbaa !45
  %158 = load ptr, ptr %5, align 8, !tbaa !116
  %159 = getelementptr inbounds nuw %struct.LodePNGInfo, ptr %158, i32 0, i32 55
  %160 = load i32, ptr %159, align 8, !tbaa !162
  %161 = lshr i32 %160, 8
  %162 = trunc i32 %161 to i8
  %163 = load ptr, ptr %6, align 8, !tbaa !11
  %164 = getelementptr inbounds i8, ptr %163, i64 22
  store i8 %162, ptr %164, align 1, !tbaa !45
  %165 = load ptr, ptr %5, align 8, !tbaa !116
  %166 = getelementptr inbounds nuw %struct.LodePNGInfo, ptr %165, i32 0, i32 55
  %167 = load i32, ptr %166, align 8, !tbaa !162
  %168 = trunc i32 %167 to i8
  %169 = load ptr, ptr %6, align 8, !tbaa !11
  %170 = getelementptr inbounds i8, ptr %169, i64 23
  store i8 %168, ptr %170, align 1, !tbaa !45
  %171 = load ptr, ptr %6, align 8, !tbaa !11
  %172 = getelementptr inbounds i8, ptr %171, i64 8
  %173 = getelementptr inbounds i8, ptr %172, i64 16
  %174 = load ptr, ptr %5, align 8, !tbaa !116
  %175 = getelementptr inbounds nuw %struct.LodePNGInfo, ptr %174, i32 0, i32 56
  %176 = load i32, ptr %175, align 4, !tbaa !163
  call void @_ZL19lodepng_set32bitIntPhj(ptr noundef %173, i32 noundef %176)
  %177 = load ptr, ptr %6, align 8, !tbaa !11
  %178 = getelementptr inbounds i8, ptr %177, i64 8
  %179 = getelementptr inbounds i8, ptr %178, i64 20
  %180 = load ptr, ptr %5, align 8, !tbaa !116
  %181 = getelementptr inbounds nuw %struct.LodePNGInfo, ptr %180, i32 0, i32 57
  %182 = load i32, ptr %181, align 8, !tbaa !164
  call void @_ZL19lodepng_set32bitIntPhj(ptr noundef %179, i32 noundef %182)
  %183 = load ptr, ptr %6, align 8, !tbaa !11
  call void @_Z26lodepng_chunk_generate_crcPh(ptr noundef %183)
  store i32 0, ptr %3, align 4
  store i32 1, ptr %7, align 4
  br label %184

184:                                              ; preds = %66, %64, %55, %49, %43, %37, %31, %25, %19, %13
  call void @llvm.lifetime.end.p0(i64 8, ptr %6) #17
  %185 = load i32, ptr %3, align 4
  ret i32 %185
}