; Function Attrs: mustprogress nounwind uwtable
define internal fastcc noundef range(i32 0, 119) i32 @_ZL13addChunk_mDCvP8ucvectorPK11LodePNGInfo(ptr noundef nonnull captures(none) %0, ptr noundef nonnull readonly captures(none) %1) unnamed_addr #3 {
  %3 = alloca ptr, align 8
  call void @llvm.lifetime.start.p0(i64 8, ptr nonnull %3) #28
  %4 = getelementptr inbounds nuw i8, ptr %1, i64 300
  %5 = load i32, ptr %4, align 4, !tbaa !475
  %6 = icmp ugt i32 %5, 65535
  br i1 %6, label %121, label %7

7:                                                ; preds = %2
  %8 = getelementptr inbounds nuw i8, ptr %1, i64 304
  %9 = load i32, ptr %8, align 8, !tbaa !476
  %10 = icmp ugt i32 %9, 65535
  br i1 %10, label %121, label %11

11:                                               ; preds = %7
  %12 = getelementptr inbounds nuw i8, ptr %1, i64 308
  %13 = load i32, ptr %12, align 4, !tbaa !477
  %14 = icmp ugt i32 %13, 65535
  br i1 %14, label %121, label %15

15:                                               ; preds = %11
  %16 = getelementptr inbounds nuw i8, ptr %1, i64 312
  %17 = load i32, ptr %16, align 8, !tbaa !478
  %18 = icmp ugt i32 %17, 65535
  br i1 %18, label %121, label %19

19:                                               ; preds = %15
  %20 = getelementptr inbounds nuw i8, ptr %1, i64 316
  %21 = load i32, ptr %20, align 4, !tbaa !479
  %22 = icmp ugt i32 %21, 65535
  br i1 %22, label %121, label %23

23:                                               ; preds = %19
  %24 = getelementptr inbounds nuw i8, ptr %1, i64 320
  %25 = load i32, ptr %24, align 8, !tbaa !480
  %26 = icmp ugt i32 %25, 65535
  br i1 %26, label %121, label %27

27:                                               ; preds = %23
  %28 = getelementptr inbounds nuw i8, ptr %1, i64 324
  %29 = load i32, ptr %28, align 4, !tbaa !481
  %30 = icmp ugt i32 %29, 65535
  br i1 %30, label %121, label %31

31:                                               ; preds = %27
  %32 = getelementptr inbounds nuw i8, ptr %1, i64 328
  %33 = load i32, ptr %32, align 8, !tbaa !482
  %34 = icmp ugt i32 %33, 65535
  br i1 %34, label %121, label %35

35:                                               ; preds = %31
  %36 = call fastcc noundef i32 @_ZL18lodepng_chunk_initPPhP8ucvectormPKc(ptr noundef %3, ptr noundef %0, i64 noundef 24, ptr noundef nonnull @.str.17)
  %.not = icmp eq i32 %36, 0
  br i1 %.not, label %37, label %121

37:                                               ; preds = %35
  %38 = load i32, ptr %4, align 4, !tbaa !475
  %39 = lshr i32 %38, 8
  %40 = trunc i32 %39 to i8
  %41 = load ptr, ptr %3, align 8, !tbaa !7
  %42 = getelementptr inbounds nuw i8, ptr %41, i64 8
  store i8 %40, ptr %42, align 1, !tbaa !18
  %43 = load i32, ptr %4, align 4, !tbaa !475
  %44 = trunc i32 %43 to i8
  %45 = getelementptr inbounds nuw i8, ptr %41, i64 9
  store i8 %44, ptr %45, align 1, !tbaa !18
  %46 = load i32, ptr %8, align 8, !tbaa !476
  %47 = lshr i32 %46, 8
  %48 = trunc i32 %47 to i8
  %49 = getelementptr inbounds nuw i8, ptr %41, i64 10
  store i8 %48, ptr %49, align 1, !tbaa !18
  %50 = load i32, ptr %8, align 8, !tbaa !476
  %51 = trunc i32 %50 to i8
  %52 = getelementptr inbounds nuw i8, ptr %41, i64 11
  store i8 %51, ptr %52, align 1, !tbaa !18
  %53 = load i32, ptr %12, align 4, !tbaa !477
  %54 = lshr i32 %53, 8
  %55 = trunc i32 %54 to i8
  %56 = getelementptr inbounds nuw i8, ptr %41, i64 12
  store i8 %55, ptr %56, align 1, !tbaa !18
  %57 = load i32, ptr %12, align 4, !tbaa !477
  %58 = trunc i32 %57 to i8
  %59 = getelementptr inbounds nuw i8, ptr %41, i64 13
  store i8 %58, ptr %59, align 1, !tbaa !18
  %60 = load i32, ptr %16, align 8, !tbaa !478
  %61 = lshr i32 %60, 8
  %62 = trunc i32 %61 to i8
  %63 = getelementptr inbounds nuw i8, ptr %41, i64 14
  store i8 %62, ptr %63, align 1, !tbaa !18
  %64 = load i32, ptr %16, align 8, !tbaa !478
  %65 = trunc i32 %64 to i8
  %66 = getelementptr inbounds nuw i8, ptr %41, i64 15
  store i8 %65, ptr %66, align 1, !tbaa !18
  %67 = load i32, ptr %20, align 4, !tbaa !479
  %68 = lshr i32 %67, 8
  %69 = trunc i32 %68 to i8
  %70 = getelementptr inbounds nuw i8, ptr %41, i64 16
  store i8 %69, ptr %70, align 1, !tbaa !18
  %71 = load i32, ptr %20, align 4, !tbaa !479
  %72 = trunc i32 %71 to i8
  %73 = getelementptr inbounds nuw i8, ptr %41, i64 17
  store i8 %72, ptr %73, align 1, !tbaa !18
  %74 = load i32, ptr %24, align 8, !tbaa !480
  %75 = lshr i32 %74, 8
  %76 = trunc i32 %75 to i8
  %77 = getelementptr inbounds nuw i8, ptr %41, i64 18
  store i8 %76, ptr %77, align 1, !tbaa !18
  %78 = load i32, ptr %24, align 8, !tbaa !480
  %79 = trunc i32 %78 to i8
  %80 = getelementptr inbounds nuw i8, ptr %41, i64 19
  store i8 %79, ptr %80, align 1, !tbaa !18
  %81 = load i32, ptr %28, align 4, !tbaa !481
  %82 = lshr i32 %81, 8
  %83 = trunc i32 %82 to i8
  %84 = getelementptr inbounds nuw i8, ptr %41, i64 20
  store i8 %83, ptr %84, align 1, !tbaa !18
  %85 = load i32, ptr %28, align 4, !tbaa !481
  %86 = trunc i32 %85 to i8
  %87 = getelementptr inbounds nuw i8, ptr %41, i64 21
  store i8 %86, ptr %87, align 1, !tbaa !18
  %88 = load i32, ptr %32, align 8, !tbaa !482
  %89 = lshr i32 %88, 8
  %90 = trunc i32 %89 to i8
  %91 = getelementptr inbounds nuw i8, ptr %41, i64 22
  store i8 %90, ptr %91, align 1, !tbaa !18
  %92 = load i32, ptr %32, align 8, !tbaa !482
  %93 = trunc i32 %92 to i8
  %94 = getelementptr inbounds nuw i8, ptr %41, i64 23
  store i8 %93, ptr %94, align 1, !tbaa !18
  %95 = getelementptr inbounds nuw i8, ptr %41, i64 24
  %96 = getelementptr inbounds nuw i8, ptr %1, i64 332
  %97 = load i32, ptr %96, align 4, !tbaa !483
  %98 = lshr i32 %97, 24
  %99 = trunc nuw i32 %98 to i8
  store i8 %99, ptr %95, align 1, !tbaa !18
  %100 = lshr i32 %97, 16
  %101 = trunc i32 %100 to i8
  %102 = getelementptr inbounds nuw i8, ptr %41, i64 25
  store i8 %101, ptr %102, align 1, !tbaa !18
  %103 = lshr i32 %97, 8
  %104 = trunc i32 %103 to i8
  %105 = getelementptr inbounds nuw i8, ptr %41, i64 26
  store i8 %104, ptr %105, align 1, !tbaa !18
  %106 = trunc i32 %97 to i8
  %107 = getelementptr inbounds nuw i8, ptr %41, i64 27
  store i8 %106, ptr %107, align 1, !tbaa !18
  %108 = getelementptr inbounds nuw i8, ptr %41, i64 28
  %109 = getelementptr inbounds nuw i8, ptr %1, i64 336
  %110 = load i32, ptr %109, align 8, !tbaa !484
  %111 = lshr i32 %110, 24
  %112 = trunc nuw i32 %111 to i8
  store i8 %112, ptr %108, align 1, !tbaa !18
  %113 = lshr i32 %110, 16
  %114 = trunc i32 %113 to i8
  %115 = getelementptr inbounds nuw i8, ptr %41, i64 29
  store i8 %114, ptr %115, align 1, !tbaa !18
  %116 = lshr i32 %110, 8
  %117 = trunc i32 %116 to i8
  %118 = getelementptr inbounds nuw i8, ptr %41, i64 30
  store i8 %117, ptr %118, align 1, !tbaa !18
  %119 = trunc i32 %110 to i8
  %120 = getelementptr inbounds nuw i8, ptr %41, i64 31
  store i8 %119, ptr %120, align 1, !tbaa !18
  tail call void @_Z26lodepng_chunk_generate_crcPh(ptr noundef %41)
  br label %121

121:                                              ; preds = %31, %27, %23, %19, %15, %11, %7, %2, %35, %37
  %.0 = phi i32 [ 0, %37 ], [ %36, %35 ], [ 118, %2 ], [ 118, %7 ], [ 118, %11 ], [ 118, %15 ], [ 118, %19 ], [ 118, %23 ], [ 118, %27 ], [ 118, %31 ]
  call void @llvm.lifetime.end.p0(i64 8, ptr nonnull %3) #28
  ret i32 %.0
}